target datalayout = "e-m:e-p270:32:32-p271:32:32-p272:64:64-i64:64-i128:128-f80:128-n8:16:32:64-S128"
target triple = "x86_64-pc-linux-gnu"

; Function Attrs: nounwind uwtable
define void @stbte__draw_rect(i32 noundef %0, i32 noundef %1, i32 noundef %2, i32 noundef %3, i32 noundef %4) #0 {
  %6 = alloca i32, align 4
  %7 = alloca i32, align 4
  %8 = alloca i32, align 4
  %9 = alloca i32, align 4
  %10 = alloca i32, align 4
  store i32 %0, ptr %6, align 4, !tbaa !13
  store i32 %1, ptr %7, align 4, !tbaa !13
  store i32 %2, ptr %8, align 4, !tbaa !13
  store i32 %3, ptr %9, align 4, !tbaa !13
  store i32 %4, ptr %10, align 4, !tbaa !13
  %11 = load i32, ptr %6, align 4, !tbaa !13
  %12 = load i32, ptr %7, align 4, !tbaa !13
  %13 = load i32, ptr %8, align 4, !tbaa !13
  %14 = load i32, ptr %9, align 4, !tbaa !13
  %15 = load i32, ptr %10, align 4, !tbaa !13
  call void @STBTE_DRAW_RECT(i32 noundef %11, i32 noundef %12, i32 noundef %13, i32 noundef %14, i32 noundef %15)
  ret void
}

; Function Attrs: nounwind uwtable
define void @stbte__draw_frame(i32 noundef %0, i32 noundef %1, i32 noundef %2, i32 noundef %3, i32 noundef %4) #0 {
  %6 = alloca i32, align 4
  %7 = alloca i32, align 4
  %8 = alloca i32, align 4
  %9 = alloca i32, align 4
  %10 = alloca i32, align 4
  store i32 %0, ptr %6, align 4, !tbaa !13
  store i32 %1, ptr %7, align 4, !tbaa !13
  store i32 %2, ptr %8, align 4, !tbaa !13
  store i32 %3, ptr %9, align 4, !tbaa !13
  store i32 %4, ptr %10, align 4, !tbaa !13
  %11 = load i32, ptr %6, align 4, !tbaa !13
  %12 = load i32, ptr %7, align 4, !tbaa !13
  %13 = load i32, ptr %8, align 4, !tbaa !13
  %14 = sub nsw i32 %13, 1
  %15 = load i32, ptr %7, align 4, !tbaa !13
  %16 = add nsw i32 %15, 1
  %17 = load i32, ptr %10, align 4, !tbaa !13
  call void @stbte__draw_rect(i32 noundef %11, i32 noundef %12, i32 noundef %14, i32 noundef %16, i32 noundef %17)
  %18 = load i32, ptr %8, align 4, !tbaa !13
  %19 = sub nsw i32 %18, 1
  %20 = load i32, ptr %7, align 4, !tbaa !13
  %21 = load i32, ptr %8, align 4, !tbaa !13
  %22 = load i32, ptr %9, align 4, !tbaa !13
  %23 = sub nsw i32 %22, 1
  %24 = load i32, ptr %10, align 4, !tbaa !13
  call void @stbte__draw_rect(i32 noundef %19, i32 noundef %20, i32 noundef %21, i32 noundef %23, i32 noundef %24)
  %25 = load i32, ptr %6, align 4, !tbaa !13
  %26 = add nsw i32 %25, 1
  %27 = load i32, ptr %9, align 4, !tbaa !13
  %28 = sub nsw i32 %27, 1
  %29 = load i32, ptr %8, align 4, !tbaa !13
  %30 = load i32, ptr %9, align 4, !tbaa !13
  %31 = load i32, ptr %10, align 4, !tbaa !13
  call void @stbte__draw_rect(i32 noundef %26, i32 noundef %28, i32 noundef %29, i32 noundef %30, i32 noundef %31)
  %32 = load i32, ptr %6, align 4, !tbaa !13
  %33 = load i32, ptr %7, align 4, !tbaa !13
  %34 = add nsw i32 %33, 1
  %35 = load i32, ptr %6, align 4, !tbaa !13
  %36 = add nsw i32 %35, 1
  %37 = load i32, ptr %9, align 4, !tbaa !13
  %38 = load i32, ptr %10, align 4, !tbaa !13
  call void @stbte__draw_rect(i32 noundef %32, i32 noundef %34, i32 noundef %36, i32 noundef %37, i32 noundef %38)
  ret void
}