; Function Attrs: nounwind uwtable
define void @stbte__draw_frame(i32 noundef %0, i32 noundef %1, i32 noundef %2, i32 noundef %3, i32 noundef %4) local_unnamed_addr #15 {
  %6 = add nsw i32 %2, -1
  %7 = add nsw i32 %1, 1
  tail call void @STBTE_DRAW_RECT(i32 noundef %0, i32 noundef %1, i32 noundef %6, i32 noundef %7, i32 noundef %4) #26
  %8 = add nsw i32 %3, -1
  tail call void @STBTE_DRAW_RECT(i32 noundef %6, i32 noundef %1, i32 noundef %2, i32 noundef %8, i32 noundef %4) #26
  %9 = add nsw i32 %0, 1
  tail call void @STBTE_DRAW_RECT(i32 noundef %9, i32 noundef %8, i32 noundef %2, i32 noundef %3, i32 noundef %4) #26
  tail call void @STBTE_DRAW_RECT(i32 noundef %0, i32 noundef %7, i32 noundef %9, i32 noundef %3, i32 noundef %4) #26
  ret void
}